target datalayout = "e-m:e-p270:32:32-p271:32:32-p272:64:64-i64:64-i128:128-f80:128-n8:16:32:64-S128"
target triple = "x86_64-pc-linux-gnu"

@.str.45 = private unnamed_addr constant [7 x i8] c"2.9.13\00", align 1
@.str.76 = private unnamed_addr constant [15 x i8] c"libXML support\00", align 1
@.str.77 = private unnamed_addr constant [7 x i8] c"active\00", align 1
@.str.78 = private unnamed_addr constant [24 x i8] c"libXML Compiled Version\00", align 1
@.str.79 = private unnamed_addr constant [22 x i8] c"libXML Loaded Version\00", align 1
@.str.80 = private unnamed_addr constant [15 x i8] c"libXML streams\00", align 1
@.str.81 = private unnamed_addr constant [8 x i8] c"enabled\00", align 1

; Function Attrs: nounwind uwtable
define internal void @zm_info_libxml(ptr noundef %0) #0 {
  %2 = alloca ptr, align 8
  store ptr %0, ptr %2, align 8
  call void @php_info_print_table_start()
  call void (i32, ...) @php_info_print_table_row(i32 noundef 2, ptr noundef @.str.76, ptr noundef @.str.77)
  call void (i32, ...) @php_info_print_table_row(i32 noundef 2, ptr noundef @.str.78, ptr noundef @.str.45)
  %3 = call ptr @__xmlParserVersion()
  %4 = load ptr, ptr %3, align 8
  call void (i32, ...) @php_info_print_table_row(i32 noundef 2, ptr noundef @.str.79, ptr noundef %4)
  call void (i32, ...) @php_info_print_table_row(i32 noundef 2, ptr noundef @.str.80, ptr noundef @.str.81)
  call void @php_info_print_table_end()
  ret void
}