; Function Attrs: nounwind uwtable
define internal void @zm_info_libxml(ptr nocapture readnone %0) #0 {
  tail call void @php_info_print_table_start() #17
  tail call void (i32, ...) @php_info_print_table_row(i32 noundef 2, ptr noundef nonnull @.str.76, ptr noundef nonnull @.str.77) #17
  tail call void (i32, ...) @php_info_print_table_row(i32 noundef 2, ptr noundef nonnull @.str.78, ptr noundef nonnull @.str.45) #17
  %2 = tail call ptr @__xmlParserVersion() #17
  %3 = load ptr, ptr %2, align 8
  tail call void (i32, ...) @php_info_print_table_row(i32 noundef 2, ptr noundef nonnull @.str.79, ptr noundef %3) #17
  tail call void (i32, ...) @php_info_print_table_row(i32 noundef 2, ptr noundef nonnull @.str.80, ptr noundef nonnull @.str.81) #17
  tail call void @php_info_print_table_end() #17
  ret void
}